
NVIC.elf:     file format elf32-littlearm

Sections:
Idx Name          Size      VMA       LMA       File off  Algn
  0 .isr_vector   00000130  08000000  08000000  00010000  2**0
                  CONTENTS, ALLOC, LOAD, READONLY, DATA
  1 .text         00000690  08000130  08000130  00010130  2**2
                  CONTENTS, ALLOC, LOAD, READONLY, CODE
  2 .rodata       00000000  080007c0  080007c8  000107c8  2**0
                  CONTENTS, ALLOC, LOAD, DATA
  3 .ARM.extab    00000000  080007c0  080007c0  000107c8  2**0
                  CONTENTS
  4 .ARM          00000000  080007c0  080007c0  000107c8  2**0
                  CONTENTS
  5 .preinit_array 00000000  080007c0  080007c8  000107c8  2**0
                  CONTENTS, ALLOC, LOAD, DATA
  6 .init_array   00000004  080007c0  080007c0  000107c0  2**2
                  CONTENTS, ALLOC, LOAD, DATA
  7 .fini_array   00000004  080007c4  080007c4  000107c4  2**2
                  CONTENTS, ALLOC, LOAD, DATA
  8 .data         00000000  20000000  20000000  000107c8  2**0
                  CONTENTS, ALLOC, LOAD, DATA
  9 .bss          0000001c  20000000  080007c8  00020000  2**2
                  ALLOC
 10 ._user_heap_stack 00000604  2000001c  080007c8  0002001c  2**0
                  ALLOC
 11 .ARM.attributes 00000029  00000000  00000000  000107c8  2**0
                  CONTENTS, READONLY
 12 .debug_info   0000065c  00000000  00000000  000107f1  2**0
                  CONTENTS, READONLY, DEBUGGING
 13 .debug_abbrev 000002cb  00000000  00000000  00010e4d  2**0
                  CONTENTS, READONLY, DEBUGGING
 14 .debug_aranges 00000120  00000000  00000000  00011118  2**3
                  CONTENTS, READONLY, DEBUGGING
 15 .debug_ranges 000000d8  00000000  00000000  00011238  2**3
                  CONTENTS, READONLY, DEBUGGING
 16 .debug_macro  00000e98  00000000  00000000  00011310  2**0
                  CONTENTS, READONLY, DEBUGGING
 17 .debug_line   000007e2  00000000  00000000  000121a8  2**0
                  CONTENTS, READONLY, DEBUGGING
 18 .debug_str    00003e06  00000000  00000000  0001298a  2**0
                  CONTENTS, READONLY, DEBUGGING
 19 .comment      0000007b  00000000  00000000  00016790  2**0
                  CONTENTS, READONLY
 20 .debug_frame  00000338  00000000  00000000  0001680c  2**2
                  CONTENTS, READONLY, DEBUGGING

Disassembly of section .text:

08000130 <__do_global_dtors_aux>:
 8000130:	b510      	push	{r4, lr}
 8000132:	4c05      	ldr	r4, [pc, #20]	; (8000148 <__do_global_dtors_aux+0x18>)
 8000134:	7823      	ldrb	r3, [r4, #0]
 8000136:	b933      	cbnz	r3, 8000146 <__do_global_dtors_aux+0x16>
 8000138:	4b04      	ldr	r3, [pc, #16]	; (800014c <__do_global_dtors_aux+0x1c>)
 800013a:	b113      	cbz	r3, 8000142 <__do_global_dtors_aux+0x12>
 800013c:	4804      	ldr	r0, [pc, #16]	; (8000150 <__do_global_dtors_aux+0x20>)
 800013e:	f3af 8000 	nop.w
 8000142:	2301      	movs	r3, #1
 8000144:	7023      	strb	r3, [r4, #0]
 8000146:	bd10      	pop	{r4, pc}
 8000148:	20000000 	.word	0x20000000
 800014c:	00000000 	.word	0x00000000
 8000150:	080007a8 	.word	0x080007a8

08000154 <frame_dummy>:
 8000154:	b508      	push	{r3, lr}
 8000156:	4b03      	ldr	r3, [pc, #12]	; (8000164 <frame_dummy+0x10>)
 8000158:	b11b      	cbz	r3, 8000162 <frame_dummy+0xe>
 800015a:	4903      	ldr	r1, [pc, #12]	; (8000168 <frame_dummy+0x14>)
 800015c:	4803      	ldr	r0, [pc, #12]	; (800016c <frame_dummy+0x18>)
 800015e:	f3af 8000 	nop.w
 8000162:	bd08      	pop	{r3, pc}
 8000164:	00000000 	.word	0x00000000
 8000168:	20000004 	.word	0x20000004
 800016c:	080007a8 	.word	0x080007a8

08000170 <MGPIO_voidSetPinDirection>:
#include "GPIO_config.h"



void MGPIO_voidSetPinDirection(u8 copy_u8PORT , u8 copy_u8PIN , u8 copy_u8Mode)
{
 8000170:	b480      	push	{r7}
 8000172:	b083      	sub	sp, #12
 8000174:	af00      	add	r7, sp, #0
 8000176:	4603      	mov	r3, r0
 8000178:	71fb      	strb	r3, [r7, #7]
 800017a:	460b      	mov	r3, r1
 800017c:	71bb      	strb	r3, [r7, #6]
 800017e:	4613      	mov	r3, r2
 8000180:	717b      	strb	r3, [r7, #5]
	switch(copy_u8PORT)
 8000182:	79fb      	ldrb	r3, [r7, #7]
 8000184:	2b01      	cmp	r3, #1
 8000186:	d03d      	beq.n	8000204 <MGPIO_voidSetPinDirection+0x94>
 8000188:	2b02      	cmp	r3, #2
 800018a:	d073      	beq.n	8000274 <MGPIO_voidSetPinDirection+0x104>
 800018c:	2b00      	cmp	r3, #0
 800018e:	d000      	beq.n	8000192 <MGPIO_voidSetPinDirection+0x22>
		

	}//switch
	
	
}//fun
 8000190:	e0ad      	b.n	80002ee <MGPIO_voidSetPinDirection+0x17e>
					if(copy_u8PIN <=7)
 8000192:	79bb      	ldrb	r3, [r7, #6]
 8000194:	2b07      	cmp	r3, #7
 8000196:	d817      	bhi.n	80001c8 <MGPIO_voidSetPinDirection+0x58>
						GPIOA_CRL &= ~((0b1111)<<(4*copy_u8PIN));
 8000198:	4b57      	ldr	r3, [pc, #348]	; (80002f8 <MGPIO_voidSetPinDirection+0x188>)
 800019a:	681b      	ldr	r3, [r3, #0]
 800019c:	79ba      	ldrb	r2, [r7, #6]
 800019e:	0092      	lsls	r2, r2, #2
 80001a0:	210f      	movs	r1, #15
 80001a2:	fa01 f202 	lsl.w	r2, r1, r2
 80001a6:	43d2      	mvns	r2, r2
 80001a8:	4611      	mov	r1, r2
 80001aa:	4a53      	ldr	r2, [pc, #332]	; (80002f8 <MGPIO_voidSetPinDirection+0x188>)
 80001ac:	400b      	ands	r3, r1
 80001ae:	6013      	str	r3, [r2, #0]
						GPIOA_CRL  |= 	copy_u8Mode<<(4*copy_u8PIN);
 80001b0:	4b51      	ldr	r3, [pc, #324]	; (80002f8 <MGPIO_voidSetPinDirection+0x188>)
 80001b2:	681b      	ldr	r3, [r3, #0]
 80001b4:	7979      	ldrb	r1, [r7, #5]
 80001b6:	79ba      	ldrb	r2, [r7, #6]
 80001b8:	0092      	lsls	r2, r2, #2
 80001ba:	fa01 f202 	lsl.w	r2, r1, r2
 80001be:	4611      	mov	r1, r2
 80001c0:	4a4d      	ldr	r2, [pc, #308]	; (80002f8 <MGPIO_voidSetPinDirection+0x188>)
 80001c2:	430b      	orrs	r3, r1
 80001c4:	6013      	str	r3, [r2, #0]
					break;
 80001c6:	e08d      	b.n	80002e4 <MGPIO_voidSetPinDirection+0x174>
					else if(copy_u8PIN <=15)
 80001c8:	79bb      	ldrb	r3, [r7, #6]
 80001ca:	2b0f      	cmp	r3, #15
 80001cc:	f200 808a 	bhi.w	80002e4 <MGPIO_voidSetPinDirection+0x174>
						GPIOA_CRH &= ~((0b1111)<<(4*(copy_u8PIN-8)));
 80001d0:	4b4a      	ldr	r3, [pc, #296]	; (80002fc <MGPIO_voidSetPinDirection+0x18c>)
 80001d2:	681b      	ldr	r3, [r3, #0]
 80001d4:	79ba      	ldrb	r2, [r7, #6]
 80001d6:	3a08      	subs	r2, #8
 80001d8:	0092      	lsls	r2, r2, #2
 80001da:	210f      	movs	r1, #15
 80001dc:	fa01 f202 	lsl.w	r2, r1, r2
 80001e0:	43d2      	mvns	r2, r2
 80001e2:	4611      	mov	r1, r2
 80001e4:	4a45      	ldr	r2, [pc, #276]	; (80002fc <MGPIO_voidSetPinDirection+0x18c>)
 80001e6:	400b      	ands	r3, r1
 80001e8:	6013      	str	r3, [r2, #0]
						GPIOA_CRH  |= copy_u8Mode<<(4*(copy_u8PIN-8));
 80001ea:	4b44      	ldr	r3, [pc, #272]	; (80002fc <MGPIO_voidSetPinDirection+0x18c>)
 80001ec:	681b      	ldr	r3, [r3, #0]
 80001ee:	7979      	ldrb	r1, [r7, #5]
 80001f0:	79ba      	ldrb	r2, [r7, #6]
 80001f2:	3a08      	subs	r2, #8
 80001f4:	0092      	lsls	r2, r2, #2
 80001f6:	fa01 f202 	lsl.w	r2, r1, r2
 80001fa:	4611      	mov	r1, r2
 80001fc:	4a3f      	ldr	r2, [pc, #252]	; (80002fc <MGPIO_voidSetPinDirection+0x18c>)
 80001fe:	430b      	orrs	r3, r1
 8000200:	6013      	str	r3, [r2, #0]
					break;
 8000202:	e06f      	b.n	80002e4 <MGPIO_voidSetPinDirection+0x174>
					if(copy_u8PIN <=7)
 8000204:	79bb      	ldrb	r3, [r7, #6]
 8000206:	2b07      	cmp	r3, #7
 8000208:	d817      	bhi.n	800023a <MGPIO_voidSetPinDirection+0xca>
						GPIOB_CRL &= ~((0b1111)<<(4*copy_u8PIN));
 800020a:	4b3d      	ldr	r3, [pc, #244]	; (8000300 <MGPIO_voidSetPinDirection+0x190>)
 800020c:	681b      	ldr	r3, [r3, #0]
 800020e:	79ba      	ldrb	r2, [r7, #6]
 8000210:	0092      	lsls	r2, r2, #2
 8000212:	210f      	movs	r1, #15
 8000214:	fa01 f202 	lsl.w	r2, r1, r2
 8000218:	43d2      	mvns	r2, r2
 800021a:	4611      	mov	r1, r2
 800021c:	4a38      	ldr	r2, [pc, #224]	; (8000300 <MGPIO_voidSetPinDirection+0x190>)
 800021e:	400b      	ands	r3, r1
 8000220:	6013      	str	r3, [r2, #0]
						GPIOB_CRL  |= 	copy_u8Mode<<(4*copy_u8PIN);
 8000222:	4b37      	ldr	r3, [pc, #220]	; (8000300 <MGPIO_voidSetPinDirection+0x190>)
 8000224:	681b      	ldr	r3, [r3, #0]
 8000226:	7979      	ldrb	r1, [r7, #5]
 8000228:	79ba      	ldrb	r2, [r7, #6]
 800022a:	0092      	lsls	r2, r2, #2
 800022c:	fa01 f202 	lsl.w	r2, r1, r2
 8000230:	4611      	mov	r1, r2
 8000232:	4a33      	ldr	r2, [pc, #204]	; (8000300 <MGPIO_voidSetPinDirection+0x190>)
 8000234:	430b      	orrs	r3, r1
 8000236:	6013      	str	r3, [r2, #0]
					break;
 8000238:	e056      	b.n	80002e8 <MGPIO_voidSetPinDirection+0x178>
					else if(copy_u8PIN <=15)
 800023a:	79bb      	ldrb	r3, [r7, #6]
 800023c:	2b0f      	cmp	r3, #15
 800023e:	d853      	bhi.n	80002e8 <MGPIO_voidSetPinDirection+0x178>
						GPIOB_CRH &= ~((0b1111)<<(4*(copy_u8PIN-8)));
 8000240:	4b30      	ldr	r3, [pc, #192]	; (8000304 <MGPIO_voidSetPinDirection+0x194>)
 8000242:	681b      	ldr	r3, [r3, #0]
 8000244:	79ba      	ldrb	r2, [r7, #6]
 8000246:	3a08      	subs	r2, #8
 8000248:	0092      	lsls	r2, r2, #2
 800024a:	210f      	movs	r1, #15
 800024c:	fa01 f202 	lsl.w	r2, r1, r2
 8000250:	43d2      	mvns	r2, r2
 8000252:	4611      	mov	r1, r2
 8000254:	4a2b      	ldr	r2, [pc, #172]	; (8000304 <MGPIO_voidSetPinDirection+0x194>)
 8000256:	400b      	ands	r3, r1
 8000258:	6013      	str	r3, [r2, #0]
						GPIOB_CRH  |= copy_u8Mode<<(4*(copy_u8PIN-8));
 800025a:	4b2a      	ldr	r3, [pc, #168]	; (8000304 <MGPIO_voidSetPinDirection+0x194>)
 800025c:	681b      	ldr	r3, [r3, #0]
 800025e:	7979      	ldrb	r1, [r7, #5]
 8000260:	79ba      	ldrb	r2, [r7, #6]
 8000262:	3a08      	subs	r2, #8
 8000264:	0092      	lsls	r2, r2, #2
 8000266:	fa01 f202 	lsl.w	r2, r1, r2
 800026a:	4611      	mov	r1, r2
 800026c:	4a25      	ldr	r2, [pc, #148]	; (8000304 <MGPIO_voidSetPinDirection+0x194>)
 800026e:	430b      	orrs	r3, r1
 8000270:	6013      	str	r3, [r2, #0]
					break;
 8000272:	e039      	b.n	80002e8 <MGPIO_voidSetPinDirection+0x178>
					if(copy_u8PIN <=7)
 8000274:	79bb      	ldrb	r3, [r7, #6]
 8000276:	2b07      	cmp	r3, #7
 8000278:	d817      	bhi.n	80002aa <MGPIO_voidSetPinDirection+0x13a>
						GPIOC_CRL &= ~((0b1111)<<(4*copy_u8PIN));
 800027a:	4b23      	ldr	r3, [pc, #140]	; (8000308 <MGPIO_voidSetPinDirection+0x198>)
 800027c:	681b      	ldr	r3, [r3, #0]
 800027e:	79ba      	ldrb	r2, [r7, #6]
 8000280:	0092      	lsls	r2, r2, #2
 8000282:	210f      	movs	r1, #15
 8000284:	fa01 f202 	lsl.w	r2, r1, r2
 8000288:	43d2      	mvns	r2, r2
 800028a:	4611      	mov	r1, r2
 800028c:	4a1e      	ldr	r2, [pc, #120]	; (8000308 <MGPIO_voidSetPinDirection+0x198>)
 800028e:	400b      	ands	r3, r1
 8000290:	6013      	str	r3, [r2, #0]
						GPIOC_CRL  |= 	copy_u8Mode<<(4*copy_u8PIN);
 8000292:	4b1d      	ldr	r3, [pc, #116]	; (8000308 <MGPIO_voidSetPinDirection+0x198>)
 8000294:	681b      	ldr	r3, [r3, #0]
 8000296:	7979      	ldrb	r1, [r7, #5]
 8000298:	79ba      	ldrb	r2, [r7, #6]
 800029a:	0092      	lsls	r2, r2, #2
 800029c:	fa01 f202 	lsl.w	r2, r1, r2
 80002a0:	4611      	mov	r1, r2
 80002a2:	4a19      	ldr	r2, [pc, #100]	; (8000308 <MGPIO_voidSetPinDirection+0x198>)
 80002a4:	430b      	orrs	r3, r1
 80002a6:	6013      	str	r3, [r2, #0]
					break;
 80002a8:	e020      	b.n	80002ec <MGPIO_voidSetPinDirection+0x17c>
					else if(copy_u8PIN <=15)
 80002aa:	79bb      	ldrb	r3, [r7, #6]
 80002ac:	2b0f      	cmp	r3, #15
 80002ae:	d81d      	bhi.n	80002ec <MGPIO_voidSetPinDirection+0x17c>
						GPIOC_CRH &= ~((0b1111)<<(4*(copy_u8PIN-8)));
 80002b0:	4b16      	ldr	r3, [pc, #88]	; (800030c <MGPIO_voidSetPinDirection+0x19c>)
 80002b2:	681b      	ldr	r3, [r3, #0]
 80002b4:	79ba      	ldrb	r2, [r7, #6]
 80002b6:	3a08      	subs	r2, #8
 80002b8:	0092      	lsls	r2, r2, #2
 80002ba:	210f      	movs	r1, #15
 80002bc:	fa01 f202 	lsl.w	r2, r1, r2
 80002c0:	43d2      	mvns	r2, r2
 80002c2:	4611      	mov	r1, r2
 80002c4:	4a11      	ldr	r2, [pc, #68]	; (800030c <MGPIO_voidSetPinDirection+0x19c>)
 80002c6:	400b      	ands	r3, r1
 80002c8:	6013      	str	r3, [r2, #0]
						GPIOC_CRH  |= copy_u8Mode<<(4*(copy_u8PIN-8));
 80002ca:	4b10      	ldr	r3, [pc, #64]	; (800030c <MGPIO_voidSetPinDirection+0x19c>)
 80002cc:	681b      	ldr	r3, [r3, #0]
 80002ce:	7979      	ldrb	r1, [r7, #5]
 80002d0:	79ba      	ldrb	r2, [r7, #6]
 80002d2:	3a08      	subs	r2, #8
 80002d4:	0092      	lsls	r2, r2, #2
 80002d6:	fa01 f202 	lsl.w	r2, r1, r2
 80002da:	4611      	mov	r1, r2
 80002dc:	4a0b      	ldr	r2, [pc, #44]	; (800030c <MGPIO_voidSetPinDirection+0x19c>)
 80002de:	430b      	orrs	r3, r1
 80002e0:	6013      	str	r3, [r2, #0]
					break;
 80002e2:	e003      	b.n	80002ec <MGPIO_voidSetPinDirection+0x17c>
					break;
 80002e4:	bf00      	nop
 80002e6:	e002      	b.n	80002ee <MGPIO_voidSetPinDirection+0x17e>
					break;
 80002e8:	bf00      	nop
 80002ea:	e000      	b.n	80002ee <MGPIO_voidSetPinDirection+0x17e>
					break;
 80002ec:	bf00      	nop
}//fun
 80002ee:	bf00      	nop
 80002f0:	370c      	adds	r7, #12
 80002f2:	46bd      	mov	sp, r7
 80002f4:	bc80      	pop	{r7}
 80002f6:	4770      	bx	lr
 80002f8:	40010800 	.word	0x40010800
 80002fc:	40010804 	.word	0x40010804
 8000300:	40010c00 	.word	0x40010c00
 8000304:	40010c04 	.word	0x40010c04
 8000308:	40011000 	.word	0x40011000
 800030c:	40011004 	.word	0x40011004

08000310 <MGPIO_voidSetPinValue>:

void MGPIO_voidSetPinValue(u8 copy_u8PORT , u8 copy_u8PIN , u8 copy_u8Value)
{
 8000310:	b480      	push	{r7}
 8000312:	b083      	sub	sp, #12
 8000314:	af00      	add	r7, sp, #0
 8000316:	4603      	mov	r3, r0
 8000318:	71fb      	strb	r3, [r7, #7]
 800031a:	460b      	mov	r3, r1
 800031c:	71bb      	strb	r3, [r7, #6]
 800031e:	4613      	mov	r3, r2
 8000320:	717b      	strb	r3, [r7, #5]
	switch(copy_u8PORT)
 8000322:	79fb      	ldrb	r3, [r7, #7]
 8000324:	2b01      	cmp	r3, #1
 8000326:	d024      	beq.n	8000372 <MGPIO_voidSetPinValue+0x62>
 8000328:	2b02      	cmp	r3, #2
 800032a:	d042      	beq.n	80003b2 <MGPIO_voidSetPinValue+0xa2>
 800032c:	2b00      	cmp	r3, #0
 800032e:	d000      	beq.n	8000332 <MGPIO_voidSetPinValue+0x22>
		

	}
	
	
}
 8000330:	e064      	b.n	80003fc <MGPIO_voidSetPinValue+0xec>
					if(copy_u8PIN <=15)
 8000332:	79bb      	ldrb	r3, [r7, #6]
 8000334:	2b0f      	cmp	r3, #15
 8000336:	d85c      	bhi.n	80003f2 <MGPIO_voidSetPinValue+0xe2>
						if(copy_u8Value==GPIO_HIGH)
 8000338:	797b      	ldrb	r3, [r7, #5]
 800033a:	2b01      	cmp	r3, #1
 800033c:	d10a      	bne.n	8000354 <MGPIO_voidSetPinValue+0x44>
							SET_BIT(GPIOA_ODR,copy_u8PIN);
 800033e:	4b32      	ldr	r3, [pc, #200]	; (8000408 <MGPIO_voidSetPinValue+0xf8>)
 8000340:	681b      	ldr	r3, [r3, #0]
 8000342:	79ba      	ldrb	r2, [r7, #6]
 8000344:	2101      	movs	r1, #1
 8000346:	fa01 f202 	lsl.w	r2, r1, r2
 800034a:	4611      	mov	r1, r2
 800034c:	4a2e      	ldr	r2, [pc, #184]	; (8000408 <MGPIO_voidSetPinValue+0xf8>)
 800034e:	430b      	orrs	r3, r1
 8000350:	6013      	str	r3, [r2, #0]
					break;
 8000352:	e04e      	b.n	80003f2 <MGPIO_voidSetPinValue+0xe2>
						else if (copy_u8Value==GPIO_LOW)
 8000354:	797b      	ldrb	r3, [r7, #5]
 8000356:	2b00      	cmp	r3, #0
 8000358:	d14b      	bne.n	80003f2 <MGPIO_voidSetPinValue+0xe2>
							CLR_BIT(GPIOA_ODR,copy_u8PIN);
 800035a:	4b2b      	ldr	r3, [pc, #172]	; (8000408 <MGPIO_voidSetPinValue+0xf8>)
 800035c:	681b      	ldr	r3, [r3, #0]
 800035e:	79ba      	ldrb	r2, [r7, #6]
 8000360:	2101      	movs	r1, #1
 8000362:	fa01 f202 	lsl.w	r2, r1, r2
 8000366:	43d2      	mvns	r2, r2
 8000368:	4611      	mov	r1, r2
 800036a:	4a27      	ldr	r2, [pc, #156]	; (8000408 <MGPIO_voidSetPinValue+0xf8>)
 800036c:	400b      	ands	r3, r1
 800036e:	6013      	str	r3, [r2, #0]
					break;
 8000370:	e03f      	b.n	80003f2 <MGPIO_voidSetPinValue+0xe2>
					if(copy_u8PIN <=15)
 8000372:	79bb      	ldrb	r3, [r7, #6]
 8000374:	2b0f      	cmp	r3, #15
 8000376:	d83e      	bhi.n	80003f6 <MGPIO_voidSetPinValue+0xe6>
						if(copy_u8Value==GPIO_HIGH)
 8000378:	797b      	ldrb	r3, [r7, #5]
 800037a:	2b01      	cmp	r3, #1
 800037c:	d10a      	bne.n	8000394 <MGPIO_voidSetPinValue+0x84>
							SET_BIT(GPIOB_ODR,copy_u8PIN);
 800037e:	4b23      	ldr	r3, [pc, #140]	; (800040c <MGPIO_voidSetPinValue+0xfc>)
 8000380:	681b      	ldr	r3, [r3, #0]
 8000382:	79ba      	ldrb	r2, [r7, #6]
 8000384:	2101      	movs	r1, #1
 8000386:	fa01 f202 	lsl.w	r2, r1, r2
 800038a:	4611      	mov	r1, r2
 800038c:	4a1f      	ldr	r2, [pc, #124]	; (800040c <MGPIO_voidSetPinValue+0xfc>)
 800038e:	430b      	orrs	r3, r1
 8000390:	6013      	str	r3, [r2, #0]
					break;
 8000392:	e030      	b.n	80003f6 <MGPIO_voidSetPinValue+0xe6>
						else if (copy_u8Value==GPIO_LOW)
 8000394:	797b      	ldrb	r3, [r7, #5]
 8000396:	2b00      	cmp	r3, #0
 8000398:	d12d      	bne.n	80003f6 <MGPIO_voidSetPinValue+0xe6>
							CLR_BIT(GPIOB_ODR,copy_u8PIN);
 800039a:	4b1c      	ldr	r3, [pc, #112]	; (800040c <MGPIO_voidSetPinValue+0xfc>)
 800039c:	681b      	ldr	r3, [r3, #0]
 800039e:	79ba      	ldrb	r2, [r7, #6]
 80003a0:	2101      	movs	r1, #1
 80003a2:	fa01 f202 	lsl.w	r2, r1, r2
 80003a6:	43d2      	mvns	r2, r2
 80003a8:	4611      	mov	r1, r2
 80003aa:	4a18      	ldr	r2, [pc, #96]	; (800040c <MGPIO_voidSetPinValue+0xfc>)
 80003ac:	400b      	ands	r3, r1
 80003ae:	6013      	str	r3, [r2, #0]
					break;
 80003b0:	e021      	b.n	80003f6 <MGPIO_voidSetPinValue+0xe6>
					if(copy_u8PIN <=15)
 80003b2:	79bb      	ldrb	r3, [r7, #6]
 80003b4:	2b0f      	cmp	r3, #15
 80003b6:	d820      	bhi.n	80003fa <MGPIO_voidSetPinValue+0xea>
						if(copy_u8Value==GPIO_HIGH)
 80003b8:	797b      	ldrb	r3, [r7, #5]
 80003ba:	2b01      	cmp	r3, #1
 80003bc:	d10a      	bne.n	80003d4 <MGPIO_voidSetPinValue+0xc4>
							SET_BIT(GPIOC_ODR,copy_u8PIN);
 80003be:	4b14      	ldr	r3, [pc, #80]	; (8000410 <MGPIO_voidSetPinValue+0x100>)
 80003c0:	681b      	ldr	r3, [r3, #0]
 80003c2:	79ba      	ldrb	r2, [r7, #6]
 80003c4:	2101      	movs	r1, #1
 80003c6:	fa01 f202 	lsl.w	r2, r1, r2
 80003ca:	4611      	mov	r1, r2
 80003cc:	4a10      	ldr	r2, [pc, #64]	; (8000410 <MGPIO_voidSetPinValue+0x100>)
 80003ce:	430b      	orrs	r3, r1
 80003d0:	6013      	str	r3, [r2, #0]
					break;
 80003d2:	e012      	b.n	80003fa <MGPIO_voidSetPinValue+0xea>
						else if (copy_u8Value==GPIO_LOW)
 80003d4:	797b      	ldrb	r3, [r7, #5]
 80003d6:	2b00      	cmp	r3, #0
 80003d8:	d10f      	bne.n	80003fa <MGPIO_voidSetPinValue+0xea>
							CLR_BIT(GPIOC_ODR,copy_u8PIN);
 80003da:	4b0d      	ldr	r3, [pc, #52]	; (8000410 <MGPIO_voidSetPinValue+0x100>)
 80003dc:	681b      	ldr	r3, [r3, #0]
 80003de:	79ba      	ldrb	r2, [r7, #6]
 80003e0:	2101      	movs	r1, #1
 80003e2:	fa01 f202 	lsl.w	r2, r1, r2
 80003e6:	43d2      	mvns	r2, r2
 80003e8:	4611      	mov	r1, r2
 80003ea:	4a09      	ldr	r2, [pc, #36]	; (8000410 <MGPIO_voidSetPinValue+0x100>)
 80003ec:	400b      	ands	r3, r1
 80003ee:	6013      	str	r3, [r2, #0]
					break;
 80003f0:	e003      	b.n	80003fa <MGPIO_voidSetPinValue+0xea>
					break;
 80003f2:	bf00      	nop
 80003f4:	e002      	b.n	80003fc <MGPIO_voidSetPinValue+0xec>
					break;
 80003f6:	bf00      	nop
 80003f8:	e000      	b.n	80003fc <MGPIO_voidSetPinValue+0xec>
					break;
 80003fa:	bf00      	nop
}
 80003fc:	bf00      	nop
 80003fe:	370c      	adds	r7, #12
 8000400:	46bd      	mov	sp, r7
 8000402:	bc80      	pop	{r7}
 8000404:	4770      	bx	lr
 8000406:	bf00      	nop
 8000408:	4001080c 	.word	0x4001080c
 800040c:	40010c0c 	.word	0x40010c0c
 8000410:	4001100c 	.word	0x4001100c

08000414 <MNVIC_voidEnableInterrupt>:
#include "NVIC_config.h"



void MNVIC_voidEnableInterrupt(u8 Copy_u8IntNumber)
{
 8000414:	b480      	push	{r7}
 8000416:	b083      	sub	sp, #12
 8000418:	af00      	add	r7, sp, #0
 800041a:	4603      	mov	r3, r0
 800041c:	71fb      	strb	r3, [r7, #7]
	
	if(Copy_u8IntNumber <32)
 800041e:	79fb      	ldrb	r3, [r7, #7]
 8000420:	2b1f      	cmp	r3, #31
 8000422:	d805      	bhi.n	8000430 <MNVIC_voidEnableInterrupt+0x1c>
	{
		
		NVIC_ISER0 = (1 <<Copy_u8IntNumber);
 8000424:	79fb      	ldrb	r3, [r7, #7]
 8000426:	2201      	movs	r2, #1
 8000428:	409a      	lsls	r2, r3
 800042a:	4b08      	ldr	r3, [pc, #32]	; (800044c <MNVIC_voidEnableInterrupt+0x38>)
 800042c:	601a      	str	r2, [r3, #0]
		
		/* return error*/
		
	}
		
}// end of enable fun
 800042e:	e008      	b.n	8000442 <MNVIC_voidEnableInterrupt+0x2e>
	else if(Copy_u8IntNumber <59)
 8000430:	79fb      	ldrb	r3, [r7, #7]
 8000432:	2b3a      	cmp	r3, #58	; 0x3a
 8000434:	d805      	bhi.n	8000442 <MNVIC_voidEnableInterrupt+0x2e>
		NVIC_ISER1 = (1 <<(Copy_u8IntNumber-32));
 8000436:	79fb      	ldrb	r3, [r7, #7]
 8000438:	3b20      	subs	r3, #32
 800043a:	2201      	movs	r2, #1
 800043c:	409a      	lsls	r2, r3
 800043e:	4b04      	ldr	r3, [pc, #16]	; (8000450 <MNVIC_voidEnableInterrupt+0x3c>)
 8000440:	601a      	str	r2, [r3, #0]
}// end of enable fun
 8000442:	bf00      	nop
 8000444:	370c      	adds	r7, #12
 8000446:	46bd      	mov	sp, r7
 8000448:	bc80      	pop	{r7}
 800044a:	4770      	bx	lr
 800044c:	e000e100 	.word	0xe000e100
 8000450:	e000e104 	.word	0xe000e104

08000454 <MNVIC_voidClearPendingFlag>:
	}
		
}// end of enable pend

void MNVIC_voidClearPendingFlag(u8 Copy_u8IntNumber)
{
 8000454:	b480      	push	{r7}
 8000456:	b083      	sub	sp, #12
 8000458:	af00      	add	r7, sp, #0
 800045a:	4603      	mov	r3, r0
 800045c:	71fb      	strb	r3, [r7, #7]
	
	if(Copy_u8IntNumber <32)
 800045e:	79fb      	ldrb	r3, [r7, #7]
 8000460:	2b1f      	cmp	r3, #31
 8000462:	d805      	bhi.n	8000470 <MNVIC_voidClearPendingFlag+0x1c>
	{
		
		NVIC_ICPR0 = (1 <<Copy_u8IntNumber);
 8000464:	79fb      	ldrb	r3, [r7, #7]
 8000466:	2201      	movs	r2, #1
 8000468:	409a      	lsls	r2, r3
 800046a:	4b08      	ldr	r3, [pc, #32]	; (800048c <MNVIC_voidClearPendingFlag+0x38>)
 800046c:	601a      	str	r2, [r3, #0]
		
		/* return error*/
		
	}
		
}// end of disable pend
 800046e:	e008      	b.n	8000482 <MNVIC_voidClearPendingFlag+0x2e>
	else if(Copy_u8IntNumber <59)
 8000470:	79fb      	ldrb	r3, [r7, #7]
 8000472:	2b3a      	cmp	r3, #58	; 0x3a
 8000474:	d805      	bhi.n	8000482 <MNVIC_voidClearPendingFlag+0x2e>
		NVIC_ICPR1 = (1 <<(Copy_u8IntNumber-32));
 8000476:	79fb      	ldrb	r3, [r7, #7]
 8000478:	3b20      	subs	r3, #32
 800047a:	2201      	movs	r2, #1
 800047c:	409a      	lsls	r2, r3
 800047e:	4b04      	ldr	r3, [pc, #16]	; (8000490 <MNVIC_voidClearPendingFlag+0x3c>)
 8000480:	601a      	str	r2, [r3, #0]
}// end of disable pend
 8000482:	bf00      	nop
 8000484:	370c      	adds	r7, #12
 8000486:	46bd      	mov	sp, r7
 8000488:	bc80      	pop	{r7}
 800048a:	4770      	bx	lr
 800048c:	e000e280 	.word	0xe000e280
 8000490:	e000e284 	.word	0xe000e284

08000494 <MNVIC_voidSetPriority>:
		
}


void MNVIC_voidSetPriority(s8 Copy_s8IntId , u8 Copy_u8GroupPriority , u8 Copy_u8SubPriority, u32 Copy_u32BinaryPoint)
{
 8000494:	b480      	push	{r7}
 8000496:	b085      	sub	sp, #20
 8000498:	af00      	add	r7, sp, #0
 800049a:	603b      	str	r3, [r7, #0]
 800049c:	4603      	mov	r3, r0
 800049e:	71fb      	strb	r3, [r7, #7]
 80004a0:	460b      	mov	r3, r1
 80004a2:	71bb      	strb	r3, [r7, #6]
 80004a4:	4613      	mov	r3, r2
 80004a6:	717b      	strb	r3, [r7, #5]
	/* 0x05FA0400 3 group & 1 sub priority*/
	u8 Local_u8Priority = Copy_u8SubPriority|(Copy_u8GroupPriority<<(Copy_u32BinaryPoint - 0x05FA0300) /256) ;
 80004a8:	79ba      	ldrb	r2, [r7, #6]
 80004aa:	6839      	ldr	r1, [r7, #0]
 80004ac:	4b10      	ldr	r3, [pc, #64]	; (80004f0 <MNVIC_voidSetPriority+0x5c>)
 80004ae:	440b      	add	r3, r1
 80004b0:	0a1b      	lsrs	r3, r3, #8
 80004b2:	fa02 f303 	lsl.w	r3, r2, r3
 80004b6:	b25a      	sxtb	r2, r3
 80004b8:	f997 3005 	ldrsb.w	r3, [r7, #5]
 80004bc:	4313      	orrs	r3, r2
 80004be:	b25b      	sxtb	r3, r3
 80004c0:	73fb      	strb	r3, [r7, #15]
	/* core peripheral   */

	/* external peripheral  */
	if(Copy_s8IntId >= 0)
 80004c2:	f997 3007 	ldrsb.w	r3, [r7, #7]
 80004c6:	2b00      	cmp	r3, #0
 80004c8:	db09      	blt.n	80004de <MNVIC_voidSetPriority+0x4a>
	{
		(NVIC_IPR[Copy_s8IntId]) = Local_u8Priority<<4 ; //because it is byte accessible
 80004ca:	f997 3007 	ldrsb.w	r3, [r7, #7]
 80004ce:	f103 4360 	add.w	r3, r3, #3758096384	; 0xe0000000
 80004d2:	f503 4364 	add.w	r3, r3, #58368	; 0xe400
 80004d6:	7bfa      	ldrb	r2, [r7, #15]
 80004d8:	0112      	lsls	r2, r2, #4
 80004da:	b2d2      	uxtb	r2, r2
 80004dc:	701a      	strb	r2, [r3, #0]
	}
	SCB_AIRCR = Copy_u32BinaryPoint;
 80004de:	4a05      	ldr	r2, [pc, #20]	; (80004f4 <MNVIC_voidSetPriority+0x60>)
 80004e0:	683b      	ldr	r3, [r7, #0]
 80004e2:	6013      	str	r3, [r2, #0]
	
}
 80004e4:	bf00      	nop
 80004e6:	3714      	adds	r7, #20
 80004e8:	46bd      	mov	sp, r7
 80004ea:	bc80      	pop	{r7}
 80004ec:	4770      	bx	lr
 80004ee:	bf00      	nop
 80004f0:	fa05fd00 	.word	0xfa05fd00
 80004f4:	e000ed0c 	.word	0xe000ed0c

080004f8 <MNVIC_voidTriggerSoftwareInterrupt>:

void MNVIC_voidTriggerSoftwareInterrupt(s8 Copy_s8IRQ)
{
 80004f8:	b480      	push	{r7}
 80004fa:	b083      	sub	sp, #12
 80004fc:	af00      	add	r7, sp, #0
 80004fe:	4603      	mov	r3, r0
 8000500:	71fb      	strb	r3, [r7, #7]
	NVIC_STIR = Copy_s8IRQ;
 8000502:	4a04      	ldr	r2, [pc, #16]	; (8000514 <MNVIC_voidTriggerSoftwareInterrupt+0x1c>)
 8000504:	f997 3007 	ldrsb.w	r3, [r7, #7]
 8000508:	6013      	str	r3, [r2, #0]
}
 800050a:	bf00      	nop
 800050c:	370c      	adds	r7, #12
 800050e:	46bd      	mov	sp, r7
 8000510:	bc80      	pop	{r7}
 8000512:	4770      	bx	lr
 8000514:	e000ef00 	.word	0xe000ef00

08000518 <RCC_voidInitSysClock>:
#include "RCC_private.h"
#include "RCC_config.h"


void RCC_voidInitSysClock(void)
{
 8000518:	b480      	push	{r7}
 800051a:	af00      	add	r7, sp, #0
		INSERT_FIELD(RCC_CFGR,0x00000003,0,0);

	#elif (RCC_CLOCK_TYPE ==RCC_PLL)

		#if((RCC_PLL_MUL_Val<=16) && (RCC_PLL_MUL_Val>=2) )
			INSERT_FIELD(RCC_CFGR,0x003C0000,RCC_PLL_MUL_Val-2,18);
 800051c:	4b13      	ldr	r3, [pc, #76]	; (800056c <RCC_voidInitSysClock+0x54>)
 800051e:	681b      	ldr	r3, [r3, #0]
 8000520:	f423 1370 	bic.w	r3, r3, #3932160	; 0x3c0000
 8000524:	4a11      	ldr	r2, [pc, #68]	; (800056c <RCC_voidInitSysClock+0x54>)
 8000526:	f503 1320 	add.w	r3, r3, #2621440	; 0x280000
 800052a:	6013      	str	r3, [r2, #0]
			#error("You chose wrong PLL Multiplier");
		#endif


		#if (RCC_PLL_INPUT == RCC_PLL_IN_HSI_DIV_2)
			CLR_BIT(RCC_CFGR,16); // PLLSRC bit
 800052c:	4b0f      	ldr	r3, [pc, #60]	; (800056c <RCC_voidInitSysClock+0x54>)
 800052e:	681b      	ldr	r3, [r3, #0]
 8000530:	4a0e      	ldr	r2, [pc, #56]	; (800056c <RCC_voidInitSysClock+0x54>)
 8000532:	f423 3380 	bic.w	r3, r3, #65536	; 0x10000
 8000536:	6013      	str	r3, [r2, #0]
			SET_BIT(RCC_CFGR,16); // PLLSRC bit
		#else
			#error ("You chose wrong PLL Source");
		#endif

		SET_BIT(RCC_CR,24);/* Enable PLL ->PLLON BIT */
 8000538:	4b0d      	ldr	r3, [pc, #52]	; (8000570 <RCC_voidInitSysClock+0x58>)
 800053a:	681b      	ldr	r3, [r3, #0]
 800053c:	4a0c      	ldr	r2, [pc, #48]	; (8000570 <RCC_voidInitSysClock+0x58>)
 800053e:	f043 7380 	orr.w	r3, r3, #16777216	; 0x1000000
 8000542:	6013      	str	r3, [r2, #0]
		INSERT_FIELD(RCC_CFGR,0x00000003,2,0);
 8000544:	4b09      	ldr	r3, [pc, #36]	; (800056c <RCC_voidInitSysClock+0x54>)
 8000546:	681b      	ldr	r3, [r3, #0]
 8000548:	f023 0303 	bic.w	r3, r3, #3
 800054c:	4a07      	ldr	r2, [pc, #28]	; (800056c <RCC_voidInitSysClock+0x54>)
 800054e:	3302      	adds	r3, #2
 8000550:	6013      	str	r3, [r2, #0]

		while(!GET_BIT(RCC_CR,25));//PLLRDY
 8000552:	bf00      	nop
 8000554:	4b06      	ldr	r3, [pc, #24]	; (8000570 <RCC_voidInitSysClock+0x58>)
 8000556:	681b      	ldr	r3, [r3, #0]
 8000558:	0e5b      	lsrs	r3, r3, #25
 800055a:	f003 0301 	and.w	r3, r3, #1
 800055e:	2b00      	cmp	r3, #0
 8000560:	d0f8      	beq.n	8000554 <RCC_voidInitSysClock+0x3c>
		#error("You chose wrong clock type")
	
	#endif
	
	
}
 8000562:	bf00      	nop
 8000564:	46bd      	mov	sp, r7
 8000566:	bc80      	pop	{r7}
 8000568:	4770      	bx	lr
 800056a:	bf00      	nop
 800056c:	40021004 	.word	0x40021004
 8000570:	40021000 	.word	0x40021000

08000574 <RCC_voidEnableClock>:

void RCC_voidEnableClock(u8 Copy_u8BusId,u8 Copy_u8PerId)
{
 8000574:	b480      	push	{r7}
 8000576:	b083      	sub	sp, #12
 8000578:	af00      	add	r7, sp, #0
 800057a:	4603      	mov	r3, r0
 800057c:	460a      	mov	r2, r1
 800057e:	71fb      	strb	r3, [r7, #7]
 8000580:	4613      	mov	r3, r2
 8000582:	71bb      	strb	r3, [r7, #6]
	if (Copy_u8PerId <= 31)
 8000584:	79bb      	ldrb	r3, [r7, #6]
 8000586:	2b1f      	cmp	r3, #31
 8000588:	d828      	bhi.n	80005dc <RCC_voidEnableClock+0x68>
	{
		switch (Copy_u8BusId)
 800058a:	79fb      	ldrb	r3, [r7, #7]
 800058c:	2b01      	cmp	r3, #1
 800058e:	d00f      	beq.n	80005b0 <RCC_voidEnableClock+0x3c>
 8000590:	2b02      	cmp	r3, #2
 8000592:	d018      	beq.n	80005c6 <RCC_voidEnableClock+0x52>
 8000594:	2b00      	cmp	r3, #0
 8000596:	d000      	beq.n	800059a <RCC_voidEnableClock+0x26>
	{	
		//#error("enable clock for unspecified prephiral");
	}
	
	
}
 8000598:	e020      	b.n	80005dc <RCC_voidEnableClock+0x68>
			case RCC_AHB  : SET_BIT(RCC_AHBENR ,Copy_u8PerId); break;
 800059a:	4b13      	ldr	r3, [pc, #76]	; (80005e8 <RCC_voidEnableClock+0x74>)
 800059c:	681b      	ldr	r3, [r3, #0]
 800059e:	79ba      	ldrb	r2, [r7, #6]
 80005a0:	2101      	movs	r1, #1
 80005a2:	fa01 f202 	lsl.w	r2, r1, r2
 80005a6:	4611      	mov	r1, r2
 80005a8:	4a0f      	ldr	r2, [pc, #60]	; (80005e8 <RCC_voidEnableClock+0x74>)
 80005aa:	430b      	orrs	r3, r1
 80005ac:	6013      	str	r3, [r2, #0]
 80005ae:	e015      	b.n	80005dc <RCC_voidEnableClock+0x68>
			case RCC_APB1 : SET_BIT(RCC_APB1ENR,Copy_u8PerId); break;
 80005b0:	4b0e      	ldr	r3, [pc, #56]	; (80005ec <RCC_voidEnableClock+0x78>)
 80005b2:	681b      	ldr	r3, [r3, #0]
 80005b4:	79ba      	ldrb	r2, [r7, #6]
 80005b6:	2101      	movs	r1, #1
 80005b8:	fa01 f202 	lsl.w	r2, r1, r2
 80005bc:	4611      	mov	r1, r2
 80005be:	4a0b      	ldr	r2, [pc, #44]	; (80005ec <RCC_voidEnableClock+0x78>)
 80005c0:	430b      	orrs	r3, r1
 80005c2:	6013      	str	r3, [r2, #0]
 80005c4:	e00a      	b.n	80005dc <RCC_voidEnableClock+0x68>
			case RCC_APB2 : SET_BIT(RCC_APB2ENR,Copy_u8PerId); break;
 80005c6:	4b0a      	ldr	r3, [pc, #40]	; (80005f0 <RCC_voidEnableClock+0x7c>)
 80005c8:	681b      	ldr	r3, [r3, #0]
 80005ca:	79ba      	ldrb	r2, [r7, #6]
 80005cc:	2101      	movs	r1, #1
 80005ce:	fa01 f202 	lsl.w	r2, r1, r2
 80005d2:	4611      	mov	r1, r2
 80005d4:	4a06      	ldr	r2, [pc, #24]	; (80005f0 <RCC_voidEnableClock+0x7c>)
 80005d6:	430b      	orrs	r3, r1
 80005d8:	6013      	str	r3, [r2, #0]
 80005da:	bf00      	nop
}
 80005dc:	bf00      	nop
 80005de:	370c      	adds	r7, #12
 80005e0:	46bd      	mov	sp, r7
 80005e2:	bc80      	pop	{r7}
 80005e4:	4770      	bx	lr
 80005e6:	bf00      	nop
 80005e8:	40021014 	.word	0x40021014
 80005ec:	4002101c 	.word	0x4002101c
 80005f0:	40021018 	.word	0x40021018

080005f4 <EXTI0_IRQHandler>:

#define reg *((volatile u32*)0xE000ED14)
void delay(u16 value);

void EXTI0_IRQHandler(void)
{
 80005f4:	b580      	push	{r7, lr}
 80005f6:	af00      	add	r7, sp, #0
	MGPIO_voidSetPinValue(GPIOA, PIN0, GPIO_HIGH);
 80005f8:	2201      	movs	r2, #1
 80005fa:	2100      	movs	r1, #0
 80005fc:	2000      	movs	r0, #0
 80005fe:	f7ff fe87 	bl	8000310 <MGPIO_voidSetPinValue>
	delay(500);
 8000602:	f44f 70fa 	mov.w	r0, #500	; 0x1f4
 8000606:	f000 f861 	bl	80006cc <delay>
//	MNVIC_voidSetPendingFlag(NVIC_EXTI_LINE1);
	MNVIC_voidClearPendingFlag(NVIC_EXTI_LINE0);
 800060a:	2006      	movs	r0, #6
 800060c:	f7ff ff22 	bl	8000454 <MNVIC_voidClearPendingFlag>
	MGPIO_voidSetPinValue(GPIOA, PIN0, GPIO_LOW);
 8000610:	2200      	movs	r2, #0
 8000612:	2100      	movs	r1, #0
 8000614:	2000      	movs	r0, #0
 8000616:	f7ff fe7b 	bl	8000310 <MGPIO_voidSetPinValue>

}
 800061a:	bf00      	nop
 800061c:	bd80      	pop	{r7, pc}

0800061e <EXTI1_IRQHandler>:
void EXTI1_IRQHandler(void)
{
 800061e:	b580      	push	{r7, lr}
 8000620:	af00      	add	r7, sp, #0
	delay(1000);
 8000622:	f44f 707a 	mov.w	r0, #1000	; 0x3e8
 8000626:	f000 f851 	bl	80006cc <delay>
	MGPIO_voidSetPinValue(GPIOA, PIN1, GPIO_HIGH);
 800062a:	2201      	movs	r2, #1
 800062c:	2101      	movs	r1, #1
 800062e:	2000      	movs	r0, #0
 8000630:	f7ff fe6e 	bl	8000310 <MGPIO_voidSetPinValue>


	delay(1000);
 8000634:	f44f 707a 	mov.w	r0, #1000	; 0x3e8
 8000638:	f000 f848 	bl	80006cc <delay>

	MGPIO_voidSetPinValue(GPIOA, PIN1, GPIO_LOW);
 800063c:	2200      	movs	r2, #0
 800063e:	2101      	movs	r1, #1
 8000640:	2000      	movs	r0, #0
 8000642:	f7ff fe65 	bl	8000310 <MGPIO_voidSetPinValue>
	delay(1000);
 8000646:	f44f 707a 	mov.w	r0, #1000	; 0x3e8
 800064a:	f000 f83f 	bl	80006cc <delay>
}
 800064e:	bf00      	nop
 8000650:	bd80      	pop	{r7, pc}
	...

08000654 <main>:

int main(void)
{
 8000654:	b580      	push	{r7, lr}
 8000656:	af00      	add	r7, sp, #0
	// initialize clock
	RCC_voidInitSysClock();
 8000658:	f7ff ff5e 	bl	8000518 <RCC_voidInitSysClock>
	RCC_voidEnableClock(RCC_PORTA);
 800065c:	2102      	movs	r1, #2
 800065e:	2002      	movs	r0, #2
 8000660:	f7ff ff88 	bl	8000574 <RCC_voidEnableClock>
	RCC_voidEnableClock(RCC_PORTB);
 8000664:	2103      	movs	r1, #3
 8000666:	2002      	movs	r0, #2
 8000668:	f7ff ff84 	bl	8000574 <RCC_voidEnableClock>
	RCC_voidEnableClock(RCC_PORTC);
 800066c:	2104      	movs	r1, #4
 800066e:	2002      	movs	r0, #2
 8000670:	f7ff ff80 	bl	8000574 <RCC_voidEnableClock>

	//initialize pin
	MGPIO_voidSetPinDirection(GPIOA, PIN0, OUTPUT_SPEED_50MHZ_PP);
 8000674:	2203      	movs	r2, #3
 8000676:	2100      	movs	r1, #0
 8000678:	2000      	movs	r0, #0
 800067a:	f7ff fd79 	bl	8000170 <MGPIO_voidSetPinDirection>
	MGPIO_voidSetPinDirection(GPIOA, PIN1, OUTPUT_SPEED_50MHZ_PP);
 800067e:	2203      	movs	r2, #3
 8000680:	2101      	movs	r1, #1
 8000682:	2000      	movs	r0, #0
 8000684:	f7ff fd74 	bl	8000170 <MGPIO_voidSetPinDirection>

	//initialize interrupt
	MNVIC_voidSetPriority(NVIC_EXTI_LINE0,0, 1, GROUP2_sub2);
 8000688:	4b0e      	ldr	r3, [pc, #56]	; (80006c4 <main+0x70>)
 800068a:	2201      	movs	r2, #1
 800068c:	2100      	movs	r1, #0
 800068e:	2006      	movs	r0, #6
 8000690:	f7ff ff00 	bl	8000494 <MNVIC_voidSetPriority>
	MNVIC_voidSetPriority(NVIC_EXTI_LINE1,0, 1, GROUP2_sub2);
 8000694:	4b0b      	ldr	r3, [pc, #44]	; (80006c4 <main+0x70>)
 8000696:	2201      	movs	r2, #1
 8000698:	2100      	movs	r1, #0
 800069a:	2007      	movs	r0, #7
 800069c:	f7ff fefa 	bl	8000494 <MNVIC_voidSetPriority>

	MNVIC_voidEnableInterrupt(NVIC_EXTI_LINE0);
 80006a0:	2006      	movs	r0, #6
 80006a2:	f7ff feb7 	bl	8000414 <MNVIC_voidEnableInterrupt>
	MNVIC_voidEnableInterrupt(NVIC_EXTI_LINE1);
 80006a6:	2007      	movs	r0, #7
 80006a8:	f7ff feb4 	bl	8000414 <MNVIC_voidEnableInterrupt>

	reg = 0x00000002;
 80006ac:	4b06      	ldr	r3, [pc, #24]	; (80006c8 <main+0x74>)
 80006ae:	2202      	movs	r2, #2
 80006b0:	601a      	str	r2, [r3, #0]
	while(1)
	{
		//MNVIC_voidSetPendingFlag(NVIC_EXTI_LINE0);
		//for (int x=0; x<12 ; x++)
		MNVIC_voidTriggerSoftwareInterrupt(6);
 80006b2:	2006      	movs	r0, #6
 80006b4:	f7ff ff20 	bl	80004f8 <MNVIC_voidTriggerSoftwareInterrupt>
		delay(1000);
 80006b8:	f44f 707a 	mov.w	r0, #1000	; 0x3e8
 80006bc:	f000 f806 	bl	80006cc <delay>
		MNVIC_voidTriggerSoftwareInterrupt(6);
 80006c0:	e7f7      	b.n	80006b2 <main+0x5e>
 80006c2:	bf00      	nop
 80006c4:	05fa0400 	.word	0x05fa0400
 80006c8:	e000ed14 	.word	0xe000ed14

080006cc <delay>:

	return 0;
}

void delay(u16 value)
{
 80006cc:	b480      	push	{r7}
 80006ce:	b085      	sub	sp, #20
 80006d0:	af00      	add	r7, sp, #0
 80006d2:	4603      	mov	r3, r0
 80006d4:	80fb      	strh	r3, [r7, #6]
	for(int x=0; x<value;x++)
 80006d6:	2300      	movs	r3, #0
 80006d8:	60fb      	str	r3, [r7, #12]
 80006da:	e00d      	b.n	80006f8 <delay+0x2c>
	{
		for(int y=0; y<value;y++)
 80006dc:	2300      	movs	r3, #0
 80006de:	60bb      	str	r3, [r7, #8]
 80006e0:	e003      	b.n	80006ea <delay+0x1e>
		{
			asm("nop");
 80006e2:	bf00      	nop
		for(int y=0; y<value;y++)
 80006e4:	68bb      	ldr	r3, [r7, #8]
 80006e6:	3301      	adds	r3, #1
 80006e8:	60bb      	str	r3, [r7, #8]
 80006ea:	88fb      	ldrh	r3, [r7, #6]
 80006ec:	68ba      	ldr	r2, [r7, #8]
 80006ee:	429a      	cmp	r2, r3
 80006f0:	dbf7      	blt.n	80006e2 <delay+0x16>
	for(int x=0; x<value;x++)
 80006f2:	68fb      	ldr	r3, [r7, #12]
 80006f4:	3301      	adds	r3, #1
 80006f6:	60fb      	str	r3, [r7, #12]
 80006f8:	88fb      	ldrh	r3, [r7, #6]
 80006fa:	68fa      	ldr	r2, [r7, #12]
 80006fc:	429a      	cmp	r2, r3
 80006fe:	dbed      	blt.n	80006dc <delay+0x10>
		}
	}
}
 8000700:	bf00      	nop
 8000702:	3714      	adds	r7, #20
 8000704:	46bd      	mov	sp, r7
 8000706:	bc80      	pop	{r7}
 8000708:	4770      	bx	lr
	...

0800070c <Reset_Handler>:

  .section .text.Reset_Handler
  .weak Reset_Handler
  .type Reset_Handler, %function
Reset_Handler:
  ldr   r0, =_estack
 800070c:	480d      	ldr	r0, [pc, #52]	; (8000744 <LoopForever+0x2>)
  mov   sp, r0          /* set stack pointer */
 800070e:	4685      	mov	sp, r0
/* Call the clock system intitialization function.*/
  bl  SystemInit
 8000710:	f3af 8000 	nop.w

/* Copy the data segment initializers from flash to SRAM */
  ldr r0, =_sdata
 8000714:	480c      	ldr	r0, [pc, #48]	; (8000748 <LoopForever+0x6>)
  ldr r1, =_edata
 8000716:	490d      	ldr	r1, [pc, #52]	; (800074c <LoopForever+0xa>)
  ldr r2, =_sidata
 8000718:	4a0d      	ldr	r2, [pc, #52]	; (8000750 <LoopForever+0xe>)
  movs r3, #0
 800071a:	2300      	movs	r3, #0
  b LoopCopyDataInit
 800071c:	e002      	b.n	8000724 <LoopCopyDataInit>

0800071e <CopyDataInit>:

CopyDataInit:
  ldr r4, [r2, r3]
 800071e:	58d4      	ldr	r4, [r2, r3]
  str r4, [r0, r3]
 8000720:	50c4      	str	r4, [r0, r3]
  adds r3, r3, #4
 8000722:	3304      	adds	r3, #4

08000724 <LoopCopyDataInit>:

LoopCopyDataInit:
  adds r4, r0, r3
 8000724:	18c4      	adds	r4, r0, r3
  cmp r4, r1
 8000726:	428c      	cmp	r4, r1
  bcc CopyDataInit
 8000728:	d3f9      	bcc.n	800071e <CopyDataInit>

/* Zero fill the bss segment. */
  ldr r2, =_sbss
 800072a:	4a0a      	ldr	r2, [pc, #40]	; (8000754 <LoopForever+0x12>)
  ldr r4, =_ebss
 800072c:	4c0a      	ldr	r4, [pc, #40]	; (8000758 <LoopForever+0x16>)
  movs r3, #0
 800072e:	2300      	movs	r3, #0
  b LoopFillZerobss
 8000730:	e001      	b.n	8000736 <LoopFillZerobss>

08000732 <FillZerobss>:

FillZerobss:
  str  r3, [r2]
 8000732:	6013      	str	r3, [r2, #0]
  adds r2, r2, #4
 8000734:	3204      	adds	r2, #4

08000736 <LoopFillZerobss>:

LoopFillZerobss:
  cmp r2, r4
 8000736:	42a2      	cmp	r2, r4
  bcc FillZerobss
 8000738:	d3fb      	bcc.n	8000732 <FillZerobss>

/* Call static constructors */
  bl __libc_init_array
 800073a:	f000 f811 	bl	8000760 <__libc_init_array>
/* Call the application's entry point.*/
  bl main
 800073e:	f7ff ff89 	bl	8000654 <main>

08000742 <LoopForever>:

LoopForever:
    b LoopForever
 8000742:	e7fe      	b.n	8000742 <LoopForever>
  ldr   r0, =_estack
 8000744:	20005000 	.word	0x20005000
  ldr r0, =_sdata
 8000748:	20000000 	.word	0x20000000
  ldr r1, =_edata
 800074c:	20000000 	.word	0x20000000
  ldr r2, =_sidata
 8000750:	080007c8 	.word	0x080007c8
  ldr r2, =_sbss
 8000754:	20000000 	.word	0x20000000
  ldr r4, =_ebss
 8000758:	2000001c 	.word	0x2000001c

0800075c <ADC1_2_IRQHandler>:
 * @retval : None
*/
  .section .text.Default_Handler,"ax",%progbits
Default_Handler:
Infinite_Loop:
  b Infinite_Loop
 800075c:	e7fe      	b.n	800075c <ADC1_2_IRQHandler>
	...

08000760 <__libc_init_array>:
 8000760:	b570      	push	{r4, r5, r6, lr}
 8000762:	2500      	movs	r5, #0
 8000764:	4e0c      	ldr	r6, [pc, #48]	; (8000798 <__libc_init_array+0x38>)
 8000766:	4c0d      	ldr	r4, [pc, #52]	; (800079c <__libc_init_array+0x3c>)
 8000768:	1ba4      	subs	r4, r4, r6
 800076a:	10a4      	asrs	r4, r4, #2
 800076c:	42a5      	cmp	r5, r4
 800076e:	d109      	bne.n	8000784 <__libc_init_array+0x24>
 8000770:	f000 f81a 	bl	80007a8 <_init>
 8000774:	2500      	movs	r5, #0
 8000776:	4e0a      	ldr	r6, [pc, #40]	; (80007a0 <__libc_init_array+0x40>)
 8000778:	4c0a      	ldr	r4, [pc, #40]	; (80007a4 <__libc_init_array+0x44>)
 800077a:	1ba4      	subs	r4, r4, r6
 800077c:	10a4      	asrs	r4, r4, #2
 800077e:	42a5      	cmp	r5, r4
 8000780:	d105      	bne.n	800078e <__libc_init_array+0x2e>
 8000782:	bd70      	pop	{r4, r5, r6, pc}
 8000784:	f856 3025 	ldr.w	r3, [r6, r5, lsl #2]
 8000788:	4798      	blx	r3
 800078a:	3501      	adds	r5, #1
 800078c:	e7ee      	b.n	800076c <__libc_init_array+0xc>
 800078e:	f856 3025 	ldr.w	r3, [r6, r5, lsl #2]
 8000792:	4798      	blx	r3
 8000794:	3501      	adds	r5, #1
 8000796:	e7f2      	b.n	800077e <__libc_init_array+0x1e>
 8000798:	080007c0 	.word	0x080007c0
 800079c:	080007c0 	.word	0x080007c0
 80007a0:	080007c0 	.word	0x080007c0
 80007a4:	080007c4 	.word	0x080007c4

080007a8 <_init>:
 80007a8:	b5f8      	push	{r3, r4, r5, r6, r7, lr}
 80007aa:	bf00      	nop
 80007ac:	bcf8      	pop	{r3, r4, r5, r6, r7}
 80007ae:	bc08      	pop	{r3}
 80007b0:	469e      	mov	lr, r3
 80007b2:	4770      	bx	lr

080007b4 <_fini>:
 80007b4:	b5f8      	push	{r3, r4, r5, r6, r7, lr}
 80007b6:	bf00      	nop
 80007b8:	bcf8      	pop	{r3, r4, r5, r6, r7}
 80007ba:	bc08      	pop	{r3}
 80007bc:	469e      	mov	lr, r3
 80007be:	4770      	bx	lr
